(dp1
S'dataset'
p2
S'mm'
p3
sS'epochs'
p4
I2000
sS'seed'
p5
I1
sS'init_weight'
p6
F0.10000000000000001
sS'reg_spec'
p7
S'_'
sS'expt_name'
p8
S'uid'
p9
sS'reg_value'
p10
F0.050000000000000003
sS'reloadFile'
p11
S'./NOSUCHFILE'
p12
sS'dim_stochastic'
p13
I100
sS'transition_layers'
p14
I2
sS'lr'
p15
F0.00080000000000000004
sS'reg_type'
p16
S'l2'
p17
sS'init_scheme'
p18
S'uniform'
p19
sS'optimizer'
p20
S'adam'
p21
sS'use_generative_prior'
p22
S'approx'
p23
sS'maxout_stride'
p24
I4
sS'batch_size'
p25
I20
sS'savedir'
p26
S'./chkpt'
p27
sS'forget_bias'
p28
F-5
sS'inference_model'
p29
S'R'
sS'emission_layers'
p30
I2
sS'savefreq'
p31
I10
sS'rnn_cell'
p32
S'lstm'
p33
sS'rnn_size'
p34
I600
sS'paramFile'
p35
g12
sS'nonlinearity'
p36
S'relu'
p37
sS'rnn_dropout'
p38
F0.10000000000000001
sS'dim_hidden'
p39
I200
sS'anneal_rate'
p40
F2
sS'debug'
p41
I00
sS'validate_only'
p42
I00
sS'transition_type'
p43
S'mlp'
p44
sS'unique_id'
p45
S'DMM_lr-0_0008-dh-200-ds-100-nl-relu-bs-20-ep-2000-rs-600-rd-0_1-infm-R-tl-2-el-2-ar-2_0-use_p-approx-rc-lstm-uid'
p46
sS'leaky_param'
p47
F0
s.